
;CodeVisionAVR C Compiler V3.32 Evaluation
;(C) Copyright 1998-2017 Pavel Haiduc, HP InfoTech s.r.l.
;http://www.hpinfotech.com

;Build configuration    : Debug
;Chip type              : ATmega16
;Program type           : Application
;Clock frequency        : 1.000000 MHz
;Memory model           : Small
;Optimize for           : Size
;(s)printf features     : int, width
;(s)scanf features      : int, width
;External RAM size      : 0
;Data Stack size        : 256 byte(s)
;Heap size              : 0 byte(s)
;Promote 'char' to 'int': Yes
;'char' is unsigned     : Yes
;8 bit enums            : Yes
;Global 'const' stored in FLASH: Yes
;Enhanced function parameter passing: Mode 2
;Enhanced core instructions: On
;Automatic register allocation for global variables: On
;Smart register allocation: On

	#define _MODEL_SMALL_

	#pragma AVRPART ADMIN PART_NAME ATmega16
	#pragma AVRPART MEMORY PROG_FLASH 16384
	#pragma AVRPART MEMORY EEPROM 512
	#pragma AVRPART MEMORY INT_SRAM SIZE 1024
	#pragma AVRPART MEMORY INT_SRAM START_ADDR 0x60

	#define CALL_SUPPORTED 1

	.LISTMAC
	.EQU UDRE=0x5
	.EQU RXC=0x7
	.EQU USR=0xB
	.EQU UDR=0xC
	.EQU SPSR=0xE
	.EQU SPDR=0xF
	.EQU EERE=0x0
	.EQU EEWE=0x1
	.EQU EEMWE=0x2
	.EQU EECR=0x1C
	.EQU EEDR=0x1D
	.EQU EEARL=0x1E
	.EQU EEARH=0x1F
	.EQU WDTCR=0x21
	.EQU MCUCR=0x35
	.EQU GICR=0x3B
	.EQU SPL=0x3D
	.EQU SPH=0x3E
	.EQU SREG=0x3F

	.DEF R0X0=R0
	.DEF R0X1=R1
	.DEF R0X2=R2
	.DEF R0X3=R3
	.DEF R0X4=R4
	.DEF R0X5=R5
	.DEF R0X6=R6
	.DEF R0X7=R7
	.DEF R0X8=R8
	.DEF R0X9=R9
	.DEF R0XA=R10
	.DEF R0XB=R11
	.DEF R0XC=R12
	.DEF R0XD=R13
	.DEF R0XE=R14
	.DEF R0XF=R15
	.DEF R0X10=R16
	.DEF R0X11=R17
	.DEF R0X12=R18
	.DEF R0X13=R19
	.DEF R0X14=R20
	.DEF R0X15=R21
	.DEF R0X16=R22
	.DEF R0X17=R23
	.DEF R0X18=R24
	.DEF R0X19=R25
	.DEF R0X1A=R26
	.DEF R0X1B=R27
	.DEF R0X1C=R28
	.DEF R0X1D=R29
	.DEF R0X1E=R30
	.DEF R0X1F=R31

	.EQU __SRAM_START=0x0060
	.EQU __SRAM_END=0x045F
	.EQU __DSTACK_SIZE=0x0100
	.EQU __HEAP_SIZE=0x0000
	.EQU __CLEAR_SRAM_SIZE=__SRAM_END-__SRAM_START+1

	.MACRO __CPD1N
	CPI  R30,LOW(@0)
	LDI  R26,HIGH(@0)
	CPC  R31,R26
	LDI  R26,BYTE3(@0)
	CPC  R22,R26
	LDI  R26,BYTE4(@0)
	CPC  R23,R26
	.ENDM

	.MACRO __CPD2N
	CPI  R26,LOW(@0)
	LDI  R30,HIGH(@0)
	CPC  R27,R30
	LDI  R30,BYTE3(@0)
	CPC  R24,R30
	LDI  R30,BYTE4(@0)
	CPC  R25,R30
	.ENDM

	.MACRO __CPWRR
	CP   R@0,R@2
	CPC  R@1,R@3
	.ENDM

	.MACRO __CPWRN
	CPI  R@0,LOW(@2)
	LDI  R30,HIGH(@2)
	CPC  R@1,R30
	.ENDM

	.MACRO __ADDB1MN
	SUBI R30,LOW(-@0-(@1))
	.ENDM

	.MACRO __ADDB2MN
	SUBI R26,LOW(-@0-(@1))
	.ENDM

	.MACRO __ADDW1MN
	SUBI R30,LOW(-@0-(@1))
	SBCI R31,HIGH(-@0-(@1))
	.ENDM

	.MACRO __ADDW2MN
	SUBI R26,LOW(-@0-(@1))
	SBCI R27,HIGH(-@0-(@1))
	.ENDM

	.MACRO __ADDW1FN
	SUBI R30,LOW(-2*@0-(@1))
	SBCI R31,HIGH(-2*@0-(@1))
	.ENDM

	.MACRO __ADDD1FN
	SUBI R30,LOW(-2*@0-(@1))
	SBCI R31,HIGH(-2*@0-(@1))
	SBCI R22,BYTE3(-2*@0-(@1))
	.ENDM

	.MACRO __ADDD1N
	SUBI R30,LOW(-@0)
	SBCI R31,HIGH(-@0)
	SBCI R22,BYTE3(-@0)
	SBCI R23,BYTE4(-@0)
	.ENDM

	.MACRO __ADDD2N
	SUBI R26,LOW(-@0)
	SBCI R27,HIGH(-@0)
	SBCI R24,BYTE3(-@0)
	SBCI R25,BYTE4(-@0)
	.ENDM

	.MACRO __SUBD1N
	SUBI R30,LOW(@0)
	SBCI R31,HIGH(@0)
	SBCI R22,BYTE3(@0)
	SBCI R23,BYTE4(@0)
	.ENDM

	.MACRO __SUBD2N
	SUBI R26,LOW(@0)
	SBCI R27,HIGH(@0)
	SBCI R24,BYTE3(@0)
	SBCI R25,BYTE4(@0)
	.ENDM

	.MACRO __ANDBMNN
	LDS  R30,@0+(@1)
	ANDI R30,LOW(@2)
	STS  @0+(@1),R30
	.ENDM

	.MACRO __ANDWMNN
	LDS  R30,@0+(@1)
	ANDI R30,LOW(@2)
	STS  @0+(@1),R30
	LDS  R30,@0+(@1)+1
	ANDI R30,HIGH(@2)
	STS  @0+(@1)+1,R30
	.ENDM

	.MACRO __ANDD1N
	ANDI R30,LOW(@0)
	ANDI R31,HIGH(@0)
	ANDI R22,BYTE3(@0)
	ANDI R23,BYTE4(@0)
	.ENDM

	.MACRO __ANDD2N
	ANDI R26,LOW(@0)
	ANDI R27,HIGH(@0)
	ANDI R24,BYTE3(@0)
	ANDI R25,BYTE4(@0)
	.ENDM

	.MACRO __ORBMNN
	LDS  R30,@0+(@1)
	ORI  R30,LOW(@2)
	STS  @0+(@1),R30
	.ENDM

	.MACRO __ORWMNN
	LDS  R30,@0+(@1)
	ORI  R30,LOW(@2)
	STS  @0+(@1),R30
	LDS  R30,@0+(@1)+1
	ORI  R30,HIGH(@2)
	STS  @0+(@1)+1,R30
	.ENDM

	.MACRO __ORD1N
	ORI  R30,LOW(@0)
	ORI  R31,HIGH(@0)
	ORI  R22,BYTE3(@0)
	ORI  R23,BYTE4(@0)
	.ENDM

	.MACRO __ORD2N
	ORI  R26,LOW(@0)
	ORI  R27,HIGH(@0)
	ORI  R24,BYTE3(@0)
	ORI  R25,BYTE4(@0)
	.ENDM

	.MACRO __DELAY_USB
	LDI  R24,LOW(@0)
__DELAY_USB_LOOP:
	DEC  R24
	BRNE __DELAY_USB_LOOP
	.ENDM

	.MACRO __DELAY_USW
	LDI  R24,LOW(@0)
	LDI  R25,HIGH(@0)
__DELAY_USW_LOOP:
	SBIW R24,1
	BRNE __DELAY_USW_LOOP
	.ENDM

	.MACRO __GETD1S
	LDD  R30,Y+@0
	LDD  R31,Y+@0+1
	LDD  R22,Y+@0+2
	LDD  R23,Y+@0+3
	.ENDM

	.MACRO __GETD2S
	LDD  R26,Y+@0
	LDD  R27,Y+@0+1
	LDD  R24,Y+@0+2
	LDD  R25,Y+@0+3
	.ENDM

	.MACRO __PUTD1S
	STD  Y+@0,R30
	STD  Y+@0+1,R31
	STD  Y+@0+2,R22
	STD  Y+@0+3,R23
	.ENDM

	.MACRO __PUTD2S
	STD  Y+@0,R26
	STD  Y+@0+1,R27
	STD  Y+@0+2,R24
	STD  Y+@0+3,R25
	.ENDM

	.MACRO __PUTDZ2
	STD  Z+@0,R26
	STD  Z+@0+1,R27
	STD  Z+@0+2,R24
	STD  Z+@0+3,R25
	.ENDM

	.MACRO __CLRD1S
	STD  Y+@0,R30
	STD  Y+@0+1,R30
	STD  Y+@0+2,R30
	STD  Y+@0+3,R30
	.ENDM

	.MACRO __POINTB1MN
	LDI  R30,LOW(@0+(@1))
	.ENDM

	.MACRO __POINTW1MN
	LDI  R30,LOW(@0+(@1))
	LDI  R31,HIGH(@0+(@1))
	.ENDM

	.MACRO __POINTD1M
	LDI  R30,LOW(@0)
	LDI  R31,HIGH(@0)
	LDI  R22,BYTE3(@0)
	LDI  R23,BYTE4(@0)
	.ENDM

	.MACRO __POINTW1FN
	LDI  R30,LOW(2*@0+(@1))
	LDI  R31,HIGH(2*@0+(@1))
	.ENDM

	.MACRO __POINTD1FN
	LDI  R30,LOW(2*@0+(@1))
	LDI  R31,HIGH(2*@0+(@1))
	LDI  R22,BYTE3(2*@0+(@1))
	LDI  R23,BYTE4(2*@0+(@1))
	.ENDM

	.MACRO __POINTB2MN
	LDI  R26,LOW(@0+(@1))
	.ENDM

	.MACRO __POINTW2MN
	LDI  R26,LOW(@0+(@1))
	LDI  R27,HIGH(@0+(@1))
	.ENDM

	.MACRO __POINTD2M
	LDI  R26,LOW(@0)
	LDI  R27,HIGH(@0)
	LDI  R24,BYTE3(@0)
	LDI  R25,BYTE4(@0)
	.ENDM

	.MACRO __POINTW2FN
	LDI  R26,LOW(2*@0+(@1))
	LDI  R27,HIGH(2*@0+(@1))
	.ENDM

	.MACRO __POINTD2FN
	LDI  R26,LOW(2*@0+(@1))
	LDI  R27,HIGH(2*@0+(@1))
	LDI  R24,BYTE3(2*@0+(@1))
	LDI  R25,BYTE4(2*@0+(@1))
	.ENDM

	.MACRO __POINTBRM
	LDI  R@0,LOW(@1)
	.ENDM

	.MACRO __POINTWRM
	LDI  R@0,LOW(@2)
	LDI  R@1,HIGH(@2)
	.ENDM

	.MACRO __POINTBRMN
	LDI  R@0,LOW(@1+(@2))
	.ENDM

	.MACRO __POINTWRMN
	LDI  R@0,LOW(@2+(@3))
	LDI  R@1,HIGH(@2+(@3))
	.ENDM

	.MACRO __POINTWRFN
	LDI  R@0,LOW(@2*2+(@3))
	LDI  R@1,HIGH(@2*2+(@3))
	.ENDM

	.MACRO __GETD1N
	LDI  R30,LOW(@0)
	LDI  R31,HIGH(@0)
	LDI  R22,BYTE3(@0)
	LDI  R23,BYTE4(@0)
	.ENDM

	.MACRO __GETD2N
	LDI  R26,LOW(@0)
	LDI  R27,HIGH(@0)
	LDI  R24,BYTE3(@0)
	LDI  R25,BYTE4(@0)
	.ENDM

	.MACRO __GETB1MN
	LDS  R30,@0+(@1)
	.ENDM

	.MACRO __GETB1HMN
	LDS  R31,@0+(@1)
	.ENDM

	.MACRO __GETW1MN
	LDS  R30,@0+(@1)
	LDS  R31,@0+(@1)+1
	.ENDM

	.MACRO __GETD1MN
	LDS  R30,@0+(@1)
	LDS  R31,@0+(@1)+1
	LDS  R22,@0+(@1)+2
	LDS  R23,@0+(@1)+3
	.ENDM

	.MACRO __GETBRMN
	LDS  R@0,@1+(@2)
	.ENDM

	.MACRO __GETWRMN
	LDS  R@0,@2+(@3)
	LDS  R@1,@2+(@3)+1
	.ENDM

	.MACRO __GETWRZ
	LDD  R@0,Z+@2
	LDD  R@1,Z+@2+1
	.ENDM

	.MACRO __GETD2Z
	LDD  R26,Z+@0
	LDD  R27,Z+@0+1
	LDD  R24,Z+@0+2
	LDD  R25,Z+@0+3
	.ENDM

	.MACRO __GETB2MN
	LDS  R26,@0+(@1)
	.ENDM

	.MACRO __GETW2MN
	LDS  R26,@0+(@1)
	LDS  R27,@0+(@1)+1
	.ENDM

	.MACRO __GETD2MN
	LDS  R26,@0+(@1)
	LDS  R27,@0+(@1)+1
	LDS  R24,@0+(@1)+2
	LDS  R25,@0+(@1)+3
	.ENDM

	.MACRO __PUTB1MN
	STS  @0+(@1),R30
	.ENDM

	.MACRO __PUTW1MN
	STS  @0+(@1),R30
	STS  @0+(@1)+1,R31
	.ENDM

	.MACRO __PUTD1MN
	STS  @0+(@1),R30
	STS  @0+(@1)+1,R31
	STS  @0+(@1)+2,R22
	STS  @0+(@1)+3,R23
	.ENDM

	.MACRO __PUTB1EN
	LDI  R26,LOW(@0+(@1))
	LDI  R27,HIGH(@0+(@1))
	CALL __EEPROMWRB
	.ENDM

	.MACRO __PUTW1EN
	LDI  R26,LOW(@0+(@1))
	LDI  R27,HIGH(@0+(@1))
	CALL __EEPROMWRW
	.ENDM

	.MACRO __PUTD1EN
	LDI  R26,LOW(@0+(@1))
	LDI  R27,HIGH(@0+(@1))
	CALL __EEPROMWRD
	.ENDM

	.MACRO __PUTBR0MN
	STS  @0+(@1),R0
	.ENDM

	.MACRO __PUTBMRN
	STS  @0+(@1),R@2
	.ENDM

	.MACRO __PUTWMRN
	STS  @0+(@1),R@2
	STS  @0+(@1)+1,R@3
	.ENDM

	.MACRO __PUTBZR
	STD  Z+@1,R@0
	.ENDM

	.MACRO __PUTWZR
	STD  Z+@2,R@0
	STD  Z+@2+1,R@1
	.ENDM

	.MACRO __GETW1R
	MOV  R30,R@0
	MOV  R31,R@1
	.ENDM

	.MACRO __GETW2R
	MOV  R26,R@0
	MOV  R27,R@1
	.ENDM

	.MACRO __GETWRN
	LDI  R@0,LOW(@2)
	LDI  R@1,HIGH(@2)
	.ENDM

	.MACRO __PUTW1R
	MOV  R@0,R30
	MOV  R@1,R31
	.ENDM

	.MACRO __PUTW2R
	MOV  R@0,R26
	MOV  R@1,R27
	.ENDM

	.MACRO __ADDWRN
	SUBI R@0,LOW(-@2)
	SBCI R@1,HIGH(-@2)
	.ENDM

	.MACRO __ADDWRR
	ADD  R@0,R@2
	ADC  R@1,R@3
	.ENDM

	.MACRO __SUBWRN
	SUBI R@0,LOW(@2)
	SBCI R@1,HIGH(@2)
	.ENDM

	.MACRO __SUBWRR
	SUB  R@0,R@2
	SBC  R@1,R@3
	.ENDM

	.MACRO __ANDWRN
	ANDI R@0,LOW(@2)
	ANDI R@1,HIGH(@2)
	.ENDM

	.MACRO __ANDWRR
	AND  R@0,R@2
	AND  R@1,R@3
	.ENDM

	.MACRO __ORWRN
	ORI  R@0,LOW(@2)
	ORI  R@1,HIGH(@2)
	.ENDM

	.MACRO __ORWRR
	OR   R@0,R@2
	OR   R@1,R@3
	.ENDM

	.MACRO __EORWRR
	EOR  R@0,R@2
	EOR  R@1,R@3
	.ENDM

	.MACRO __GETWRS
	LDD  R@0,Y+@2
	LDD  R@1,Y+@2+1
	.ENDM

	.MACRO __PUTBSR
	STD  Y+@1,R@0
	.ENDM

	.MACRO __PUTWSR
	STD  Y+@2,R@0
	STD  Y+@2+1,R@1
	.ENDM

	.MACRO __MOVEWRR
	MOV  R@0,R@2
	MOV  R@1,R@3
	.ENDM

	.MACRO __INWR
	IN   R@0,@2
	IN   R@1,@2+1
	.ENDM

	.MACRO __OUTWR
	OUT  @2+1,R@1
	OUT  @2,R@0
	.ENDM

	.MACRO __CALL1MN
	LDS  R30,@0+(@1)
	LDS  R31,@0+(@1)+1
	ICALL
	.ENDM

	.MACRO __CALL1FN
	LDI  R30,LOW(2*@0+(@1))
	LDI  R31,HIGH(2*@0+(@1))
	CALL __GETW1PF
	ICALL
	.ENDM

	.MACRO __CALL2EN
	PUSH R26
	PUSH R27
	LDI  R26,LOW(@0+(@1))
	LDI  R27,HIGH(@0+(@1))
	CALL __EEPROMRDW
	POP  R27
	POP  R26
	ICALL
	.ENDM

	.MACRO __CALL2EX
	SUBI R26,LOW(-@0)
	SBCI R27,HIGH(-@0)
	CALL __EEPROMRDD
	ICALL
	.ENDM

	.MACRO __GETW1STACK
	IN   R30,SPL
	IN   R31,SPH
	ADIW R30,@0+1
	LD   R0,Z+
	LD   R31,Z
	MOV  R30,R0
	.ENDM

	.MACRO __GETD1STACK
	IN   R30,SPL
	IN   R31,SPH
	ADIW R30,@0+1
	LD   R0,Z+
	LD   R1,Z+
	LD   R22,Z
	MOVW R30,R0
	.ENDM

	.MACRO __NBST
	BST  R@0,@1
	IN   R30,SREG
	LDI  R31,0x40
	EOR  R30,R31
	OUT  SREG,R30
	.ENDM


	.MACRO __PUTB1SN
	LDD  R26,Y+@0
	LDD  R27,Y+@0+1
	SUBI R26,LOW(-@1)
	SBCI R27,HIGH(-@1)
	ST   X,R30
	.ENDM

	.MACRO __PUTW1SN
	LDD  R26,Y+@0
	LDD  R27,Y+@0+1
	SUBI R26,LOW(-@1)
	SBCI R27,HIGH(-@1)
	ST   X+,R30
	ST   X,R31
	.ENDM

	.MACRO __PUTD1SN
	LDD  R26,Y+@0
	LDD  R27,Y+@0+1
	SUBI R26,LOW(-@1)
	SBCI R27,HIGH(-@1)
	CALL __PUTDP1
	.ENDM

	.MACRO __PUTB1SNS
	LDD  R26,Y+@0
	LDD  R27,Y+@0+1
	ADIW R26,@1
	ST   X,R30
	.ENDM

	.MACRO __PUTW1SNS
	LDD  R26,Y+@0
	LDD  R27,Y+@0+1
	ADIW R26,@1
	ST   X+,R30
	ST   X,R31
	.ENDM

	.MACRO __PUTD1SNS
	LDD  R26,Y+@0
	LDD  R27,Y+@0+1
	ADIW R26,@1
	CALL __PUTDP1
	.ENDM

	.MACRO __PUTB1PMN
	LDS  R26,@0
	LDS  R27,@0+1
	SUBI R26,LOW(-@1)
	SBCI R27,HIGH(-@1)
	ST   X,R30
	.ENDM

	.MACRO __PUTW1PMN
	LDS  R26,@0
	LDS  R27,@0+1
	SUBI R26,LOW(-@1)
	SBCI R27,HIGH(-@1)
	ST   X+,R30
	ST   X,R31
	.ENDM

	.MACRO __PUTD1PMN
	LDS  R26,@0
	LDS  R27,@0+1
	SUBI R26,LOW(-@1)
	SBCI R27,HIGH(-@1)
	CALL __PUTDP1
	.ENDM

	.MACRO __PUTB1PMNS
	LDS  R26,@0
	LDS  R27,@0+1
	ADIW R26,@1
	ST   X,R30
	.ENDM

	.MACRO __PUTW1PMNS
	LDS  R26,@0
	LDS  R27,@0+1
	ADIW R26,@1
	ST   X+,R30
	ST   X,R31
	.ENDM

	.MACRO __PUTD1PMNS
	LDS  R26,@0
	LDS  R27,@0+1
	ADIW R26,@1
	CALL __PUTDP1
	.ENDM

	.MACRO __PUTB1RN
	MOVW R26,R@0
	SUBI R26,LOW(-@1)
	SBCI R27,HIGH(-@1)
	ST   X,R30
	.ENDM

	.MACRO __PUTW1RN
	MOVW R26,R@0
	SUBI R26,LOW(-@1)
	SBCI R27,HIGH(-@1)
	ST   X+,R30
	ST   X,R31
	.ENDM

	.MACRO __PUTD1RN
	MOVW R26,R@0
	SUBI R26,LOW(-@1)
	SBCI R27,HIGH(-@1)
	CALL __PUTDP1
	.ENDM

	.MACRO __PUTB1RNS
	MOVW R26,R@0
	ADIW R26,@1
	ST   X,R30
	.ENDM

	.MACRO __PUTW1RNS
	MOVW R26,R@0
	ADIW R26,@1
	ST   X+,R30
	ST   X,R31
	.ENDM

	.MACRO __PUTD1RNS
	MOVW R26,R@0
	ADIW R26,@1
	CALL __PUTDP1
	.ENDM

	.MACRO __PUTB1RON
	MOV  R26,R@0
	MOV  R27,R@1
	SUBI R26,LOW(-@2)
	SBCI R27,HIGH(-@2)
	ST   X,R30
	.ENDM

	.MACRO __PUTW1RON
	MOV  R26,R@0
	MOV  R27,R@1
	SUBI R26,LOW(-@2)
	SBCI R27,HIGH(-@2)
	ST   X+,R30
	ST   X,R31
	.ENDM

	.MACRO __PUTD1RON
	MOV  R26,R@0
	MOV  R27,R@1
	SUBI R26,LOW(-@2)
	SBCI R27,HIGH(-@2)
	CALL __PUTDP1
	.ENDM

	.MACRO __PUTB1RONS
	MOV  R26,R@0
	MOV  R27,R@1
	ADIW R26,@2
	ST   X,R30
	.ENDM

	.MACRO __PUTW1RONS
	MOV  R26,R@0
	MOV  R27,R@1
	ADIW R26,@2
	ST   X+,R30
	ST   X,R31
	.ENDM

	.MACRO __PUTD1RONS
	MOV  R26,R@0
	MOV  R27,R@1
	ADIW R26,@2
	CALL __PUTDP1
	.ENDM


	.MACRO __GETB1SX
	MOVW R30,R28
	SUBI R30,LOW(-@0)
	SBCI R31,HIGH(-@0)
	LD   R30,Z
	.ENDM

	.MACRO __GETB1HSX
	MOVW R30,R28
	SUBI R30,LOW(-@0)
	SBCI R31,HIGH(-@0)
	LD   R31,Z
	.ENDM

	.MACRO __GETW1SX
	MOVW R30,R28
	SUBI R30,LOW(-@0)
	SBCI R31,HIGH(-@0)
	LD   R0,Z+
	LD   R31,Z
	MOV  R30,R0
	.ENDM

	.MACRO __GETD1SX
	MOVW R30,R28
	SUBI R30,LOW(-@0)
	SBCI R31,HIGH(-@0)
	LD   R0,Z+
	LD   R1,Z+
	LD   R22,Z+
	LD   R23,Z
	MOVW R30,R0
	.ENDM

	.MACRO __GETB2SX
	MOVW R26,R28
	SUBI R26,LOW(-@0)
	SBCI R27,HIGH(-@0)
	LD   R26,X
	.ENDM

	.MACRO __GETW2SX
	MOVW R26,R28
	SUBI R26,LOW(-@0)
	SBCI R27,HIGH(-@0)
	LD   R0,X+
	LD   R27,X
	MOV  R26,R0
	.ENDM

	.MACRO __GETD2SX
	MOVW R26,R28
	SUBI R26,LOW(-@0)
	SBCI R27,HIGH(-@0)
	LD   R0,X+
	LD   R1,X+
	LD   R24,X+
	LD   R25,X
	MOVW R26,R0
	.ENDM

	.MACRO __GETBRSX
	MOVW R30,R28
	SUBI R30,LOW(-@1)
	SBCI R31,HIGH(-@1)
	LD   R@0,Z
	.ENDM

	.MACRO __GETWRSX
	MOVW R30,R28
	SUBI R30,LOW(-@2)
	SBCI R31,HIGH(-@2)
	LD   R@0,Z+
	LD   R@1,Z
	.ENDM

	.MACRO __GETBRSX2
	MOVW R26,R28
	SUBI R26,LOW(-@1)
	SBCI R27,HIGH(-@1)
	LD   R@0,X
	.ENDM

	.MACRO __GETWRSX2
	MOVW R26,R28
	SUBI R26,LOW(-@2)
	SBCI R27,HIGH(-@2)
	LD   R@0,X+
	LD   R@1,X
	.ENDM

	.MACRO __LSLW8SX
	MOVW R30,R28
	SUBI R30,LOW(-@0)
	SBCI R31,HIGH(-@0)
	LD   R31,Z
	CLR  R30
	.ENDM

	.MACRO __PUTB1SX
	MOVW R26,R28
	SUBI R26,LOW(-@0)
	SBCI R27,HIGH(-@0)
	ST   X,R30
	.ENDM

	.MACRO __PUTW1SX
	MOVW R26,R28
	SUBI R26,LOW(-@0)
	SBCI R27,HIGH(-@0)
	ST   X+,R30
	ST   X,R31
	.ENDM

	.MACRO __PUTD1SX
	MOVW R26,R28
	SUBI R26,LOW(-@0)
	SBCI R27,HIGH(-@0)
	ST   X+,R30
	ST   X+,R31
	ST   X+,R22
	ST   X,R23
	.ENDM

	.MACRO __CLRW1SX
	MOVW R26,R28
	SUBI R26,LOW(-@0)
	SBCI R27,HIGH(-@0)
	ST   X+,R30
	ST   X,R30
	.ENDM

	.MACRO __CLRD1SX
	MOVW R26,R28
	SUBI R26,LOW(-@0)
	SBCI R27,HIGH(-@0)
	ST   X+,R30
	ST   X+,R30
	ST   X+,R30
	ST   X,R30
	.ENDM

	.MACRO __PUTB2SX
	MOVW R30,R28
	SUBI R30,LOW(-@0)
	SBCI R31,HIGH(-@0)
	ST   Z,R26
	.ENDM

	.MACRO __PUTW2SX
	MOVW R30,R28
	SUBI R30,LOW(-@0)
	SBCI R31,HIGH(-@0)
	ST   Z+,R26
	ST   Z,R27
	.ENDM

	.MACRO __PUTD2SX
	MOVW R30,R28
	SUBI R30,LOW(-@0)
	SBCI R31,HIGH(-@0)
	ST   Z+,R26
	ST   Z+,R27
	ST   Z+,R24
	ST   Z,R25
	.ENDM

	.MACRO __PUTBSRX
	MOVW R30,R28
	SUBI R30,LOW(-@1)
	SBCI R31,HIGH(-@1)
	ST   Z,R@0
	.ENDM

	.MACRO __PUTWSRX
	MOVW R30,R28
	SUBI R30,LOW(-@2)
	SBCI R31,HIGH(-@2)
	ST   Z+,R@0
	ST   Z,R@1
	.ENDM

	.MACRO __PUTB1SNX
	MOVW R26,R28
	SUBI R26,LOW(-@0)
	SBCI R27,HIGH(-@0)
	LD   R0,X+
	LD   R27,X
	MOV  R26,R0
	SUBI R26,LOW(-@1)
	SBCI R27,HIGH(-@1)
	ST   X,R30
	.ENDM

	.MACRO __PUTW1SNX
	MOVW R26,R28
	SUBI R26,LOW(-@0)
	SBCI R27,HIGH(-@0)
	LD   R0,X+
	LD   R27,X
	MOV  R26,R0
	SUBI R26,LOW(-@1)
	SBCI R27,HIGH(-@1)
	ST   X+,R30
	ST   X,R31
	.ENDM

	.MACRO __PUTD1SNX
	MOVW R26,R28
	SUBI R26,LOW(-@0)
	SBCI R27,HIGH(-@0)
	LD   R0,X+
	LD   R27,X
	MOV  R26,R0
	SUBI R26,LOW(-@1)
	SBCI R27,HIGH(-@1)
	ST   X+,R30
	ST   X+,R31
	ST   X+,R22
	ST   X,R23
	.ENDM

	.MACRO __MULBRR
	MULS R@0,R@1
	MOVW R30,R0
	.ENDM

	.MACRO __MULBRRU
	MUL  R@0,R@1
	MOVW R30,R0
	.ENDM

	.MACRO __MULBRR0
	MULS R@0,R@1
	.ENDM

	.MACRO __MULBRRU0
	MUL  R@0,R@1
	.ENDM

	.MACRO __MULBNWRU
	LDI  R26,@2
	MUL  R26,R@0
	MOVW R30,R0
	MUL  R26,R@1
	ADD  R31,R0
	.ENDM

;NAME DEFINITIONS FOR GLOBAL VARIABLES ALLOCATED TO REGISTERS
	.DEF _a=R5
	.DEF _x=R6
	.DEF _x_msb=R7
	.DEF _t=R8
	.DEF _t_msb=R9
	.DEF _y=R10
	.DEF _y_msb=R11
	.DEF _b=R12
	.DEF _b_msb=R13
	.DEF __lcd_x=R4

	.CSEG
	.ORG 0x00

;START OF CODE MARKER
__START_OF_CODE:

;INTERRUPT VECTORS
	JMP  __RESET
	JMP  0x00
	JMP  0x00
	JMP  _timer2_comp_isr
	JMP  0x00
	JMP  0x00
	JMP  0x00
	JMP  0x00
	JMP  0x00
	JMP  0x00
	JMP  0x00
	JMP  0x00
	JMP  0x00
	JMP  0x00
	JMP  _adc_isr
	JMP  0x00
	JMP  0x00
	JMP  0x00
	JMP  _ext_int2_isr
	JMP  0x00
	JMP  0x00

_tbl10_G105:
	.DB  0x10,0x27,0xE8,0x3,0x64,0x0,0xA,0x0
	.DB  0x1,0x0
_tbl16_G105:
	.DB  0x0,0x10,0x0,0x1,0x10,0x0,0x1,0x0

;GLOBAL REGISTER VARIABLES INITIALIZATION
__REG_VARS:
	.DB  0x0,0x0,0x0,0x0
	.DB  0x0,0x0,0x0

_0x3:
	.DB  0x66,0x66,0x66,0x3F
_0x0:
	.DB  0x73,0x70,0x65,0x65,0x64,0x3D,0x0,0x41
	.DB  0x44,0x43,0x3D,0x0
_0x2000060:
	.DB  0x1
_0x2000000:
	.DB  0x2D,0x4E,0x41,0x4E,0x0,0x49,0x4E,0x46
	.DB  0x0
_0x2020003:
	.DB  0x80,0xC0

__GLOBAL_INI_TBL:
	.DW  0x07
	.DW  0x05
	.DW  __REG_VARS*2

	.DW  0x04
	.DW  _kp
	.DW  _0x3*2

	.DW  0x07
	.DW  _0xA
	.DW  _0x0*2

	.DW  0x05
	.DW  _0xA+7
	.DW  _0x0*2+7

	.DW  0x01
	.DW  __seed_G100
	.DW  _0x2000060*2

	.DW  0x02
	.DW  __base_y_G101
	.DW  _0x2020003*2

_0xFFFFFFFF:
	.DW  0

#define __GLOBAL_INI_TBL_PRESENT 1

__RESET:
	CLI
	CLR  R30
	OUT  EECR,R30

;INTERRUPT VECTORS ARE PLACED
;AT THE START OF FLASH
	LDI  R31,1
	OUT  GICR,R31
	OUT  GICR,R30
	OUT  MCUCR,R30

;CLEAR R2-R14
	LDI  R24,(14-2)+1
	LDI  R26,2
	CLR  R27
__CLEAR_REG:
	ST   X+,R30
	DEC  R24
	BRNE __CLEAR_REG

;CLEAR SRAM
	LDI  R24,LOW(__CLEAR_SRAM_SIZE)
	LDI  R25,HIGH(__CLEAR_SRAM_SIZE)
	LDI  R26,__SRAM_START
__CLEAR_SRAM:
	ST   X+,R30
	SBIW R24,1
	BRNE __CLEAR_SRAM

;GLOBAL VARIABLES INITIALIZATION
	LDI  R30,LOW(__GLOBAL_INI_TBL*2)
	LDI  R31,HIGH(__GLOBAL_INI_TBL*2)
__GLOBAL_INI_NEXT:
	LPM  R24,Z+
	LPM  R25,Z+
	SBIW R24,0
	BREQ __GLOBAL_INI_END
	LPM  R26,Z+
	LPM  R27,Z+
	LPM  R0,Z+
	LPM  R1,Z+
	MOVW R22,R30
	MOVW R30,R0
__GLOBAL_INI_LOOP:
	LPM  R0,Z+
	ST   X+,R0
	SBIW R24,1
	BRNE __GLOBAL_INI_LOOP
	MOVW R30,R22
	RJMP __GLOBAL_INI_NEXT
__GLOBAL_INI_END:

;HARDWARE STACK POINTER INITIALIZATION
	LDI  R30,LOW(__SRAM_END-__HEAP_SIZE)
	OUT  SPL,R30
	LDI  R30,HIGH(__SRAM_END-__HEAP_SIZE)
	OUT  SPH,R30

;DATA STACK POINTER INITIALIZATION
	LDI  R28,LOW(__SRAM_START+__DSTACK_SIZE)
	LDI  R29,HIGH(__SRAM_START+__DSTACK_SIZE)

	JMP  _main

	.ESEG
	.ORG 0x00

	.DSEG
	.ORG 0x160

	.CSEG
;/*******************************************************
;This program was created by the CodeWizardAVR V3.32
;Automatic Program Generator
;© Copyright 1998-2017 Pavel Haiduc, HP InfoTech s.r.l.
;http://www.hpinfotech.com
;
;Project :
;Version :
;Date    : 27/11/2019
;Author  :
;Company :
;Comments:
;
;
;Chip type               : ATmega16
;Program type            : Application
;AVR Core Clock frequency: 1.000000 MHz
;Memory model            : Small
;External RAM size       : 0
;Data Stack size         : 256
;*******************************************************/
;
;#include <mega16.h>
	#ifndef __SLEEP_DEFINED__
	#define __SLEEP_DEFINED__
	.EQU __se_bit=0x40
	.EQU __sm_mask=0xB0
	.EQU __sm_powerdown=0x20
	.EQU __sm_powersave=0x30
	.EQU __sm_standby=0xA0
	.EQU __sm_ext_standby=0xB0
	.EQU __sm_adc_noise_red=0x10
	.SET power_ctrl_reg=mcucr
	#endif
;#include <stdlib.h>
;
;#include <delay.h>
;
;// Alphanumeric LCD functions
;#include <alcd.h>
;  unsigned char a=0;
;  unsigned int x=0;
;  unsigned int t=0;
;  unsigned int y=0;
;  unsigned char *b;
;  unsigned char *c;
; float  pre_error;
;  float kp=0.9;

	.DSEG
;//  float ki=0;
;//  float kd=10000000000;
;  float error;
;  float Pout;
;//  float integral;
;//  float Dout;
;//  float Iout;
;//  float derivative;
;  float output;
;
;
;float PID(float setpoint,float pv)
; 0000 0032 {error=setpoint-pv;

	.CSEG
_PID:
; .FSTART _PID
	RCALL __PUTPARD2
;	setpoint -> Y+4
;	pv -> Y+0
	RCALL __GETD2S0
	__GETD1S 4
	RCALL __SUBF12
	STS  _error,R30
	STS  _error+1,R31
	STS  _error+2,R22
	STS  _error+3,R23
; 0000 0033 Pout=kp*error;
	RCALL SUBOPT_0x0
	LDS  R26,_kp
	LDS  R27,_kp+1
	LDS  R24,_kp+2
	LDS  R25,_kp+3
	RCALL __MULF12
	STS  _Pout,R30
	STS  _Pout+1,R31
	STS  _Pout+2,R22
	STS  _Pout+3,R23
; 0000 0034 //integral+=error*dt;
; 0000 0035 //Iout=ki*integral;
; 0000 0036 //derivative=(error-pre_error)/dt;
; 0000 0037 //Dout=kd*derivative;
; 0000 0038 output=Pout;
	STS  _output,R30
	STS  _output+1,R31
	STS  _output+2,R22
	STS  _output+3,R23
; 0000 0039 pre_error=error;
	RCALL SUBOPT_0x0
	STS  _pre_error,R30
	STS  _pre_error+1,R31
	STS  _pre_error+2,R22
	STS  _pre_error+3,R23
; 0000 003A return output;
	LDS  R30,_output
	LDS  R31,_output+1
	LDS  R22,_output+2
	LDS  R23,_output+3
	ADIW R28,8
	RET
; 0000 003B }
; .FEND
;interrupt [EXT_INT2] void ext_int2_isr(void)
; 0000 003D {
_ext_int2_isr:
; .FSTART _ext_int2_isr
	ST   -Y,R30
	ST   -Y,R31
	IN   R30,SREG
	ST   -Y,R30
; 0000 003E x++;
	MOVW R30,R6
	ADIW R30,1
	MOVW R6,R30
; 0000 003F }
	LD   R30,Y+
	OUT  SREG,R30
	LD   R31,Y+
	LD   R30,Y+
	RETI
; .FEND
;// Timer2 output compare interrupt service routine
;interrupt [TIM2_COMP] void timer2_comp_isr(void)
; 0000 0042 {t++;
_timer2_comp_isr:
; .FSTART _timer2_comp_isr
	ST   -Y,R0
	ST   -Y,R1
	ST   -Y,R25
	ST   -Y,R26
	ST   -Y,R27
	ST   -Y,R30
	ST   -Y,R31
	IN   R30,SREG
	ST   -Y,R30
	MOVW R30,R8
	ADIW R30,1
	MOVW R8,R30
; 0000 0043 if(t==1000)
	LDI  R30,LOW(1000)
	LDI  R31,HIGH(1000)
	CP   R30,R8
	CPC  R31,R9
	BRNE _0x4
; 0000 0044 {y=x/20;
	MOVW R26,R6
	LDI  R30,LOW(20)
	LDI  R31,HIGH(20)
	RCALL __DIVW21U
	MOVW R10,R30
; 0000 0045 t=0;
	CLR  R8
	CLR  R9
; 0000 0046 x=0;
	CLR  R6
	CLR  R7
; 0000 0047 }}
_0x4:
	LD   R30,Y+
	OUT  SREG,R30
	LD   R31,Y+
	LD   R30,Y+
	LD   R27,Y+
	LD   R26,Y+
	LD   R25,Y+
	LD   R1,Y+
	LD   R0,Y+
	RETI
; .FEND
;
;// Voltage Reference: AREF pin
;#define ADC_VREF_TYPE ((0<<REFS1) | (0<<REFS0) | (1<<ADLAR))
;
;// ADC interrupt service routine
;interrupt [ADC_INT] void adc_isr(void)
; 0000 004E {
_adc_isr:
; .FSTART _adc_isr
; 0000 004F 
; 0000 0050 // Read the 8 most significant bits
; 0000 0051 // of the AD conversion result
; 0000 0052 a=ADCH;
	IN   R5,5
; 0000 0053 // Place your code here
; 0000 0054 
; 0000 0055 }
	RETI
; .FEND
;
;void main(void)
; 0000 0058 {
_main:
; .FSTART _main
; 0000 0059 // Declare your local variables here
; 0000 005A 
; 0000 005B // Input/Output Ports initialization
; 0000 005C // Port A initialization
; 0000 005D // Function: Bit7=In Bit6=In Bit5=In Bit4=In Bit3=In Bit2=In Bit1=In Bit0=In
; 0000 005E DDRA=(0<<DDA7) | (0<<DDA6) | (0<<DDA5) | (0<<DDA4) | (0<<DDA3) | (0<<DDA2) | (0<<DDA1) | (0<<DDA0);
	LDI  R30,LOW(0)
	OUT  0x1A,R30
; 0000 005F // State: Bit7=T Bit6=T Bit5=T Bit4=T Bit3=T Bit2=T Bit1=T Bit0=T
; 0000 0060 PORTA=(0<<PORTA7) | (0<<PORTA6) | (0<<PORTA5) | (0<<PORTA4) | (0<<PORTA3) | (0<<PORTA2) | (0<<PORTA1) | (0<<PORTA0);
	OUT  0x1B,R30
; 0000 0061 
; 0000 0062 // Port B initialization
; 0000 0063 // Function: Bit7=In Bit6=In Bit5=In Bit4=In Bit3=Out Bit2=In Bit1=In Bit0=In
; 0000 0064 DDRB=(0<<DDB7) | (0<<DDB6) | (0<<DDB5) | (0<<DDB4) | (1<<DDB3) | (0<<DDB2) | (0<<DDB1) | (0<<DDB0);
	LDI  R30,LOW(8)
	OUT  0x17,R30
; 0000 0065 // State: Bit7=T Bit6=T Bit5=T Bit4=T Bit3=1 Bit2=P Bit1=T Bit0=T
; 0000 0066 PORTB=(0<<PORTB7) | (0<<PORTB6) | (0<<PORTB5) | (0<<PORTB4) | (1<<PORTB3) | (1<<PORTB2) | (0<<PORTB1) | (0<<PORTB0);
	LDI  R30,LOW(12)
	OUT  0x18,R30
; 0000 0067 
; 0000 0068 // Port C initialization
; 0000 0069 // Function: Bit7=In Bit6=In Bit5=In Bit4=In Bit3=In Bit2=In Bit1=In Bit0=In
; 0000 006A DDRC=(0<<DDC7) | (0<<DDC6) | (0<<DDC5) | (0<<DDC4) | (0<<DDC3) | (0<<DDC2) | (0<<DDC1) | (0<<DDC0);
	LDI  R30,LOW(0)
	OUT  0x14,R30
; 0000 006B // State: Bit7=T Bit6=T Bit5=T Bit4=T Bit3=T Bit2=T Bit1=T Bit0=T
; 0000 006C PORTC=(0<<PORTC7) | (0<<PORTC6) | (0<<PORTC5) | (0<<PORTC4) | (0<<PORTC3) | (0<<PORTC2) | (0<<PORTC1) | (0<<PORTC0);
	OUT  0x15,R30
; 0000 006D 
; 0000 006E // Port D initialization
; 0000 006F // Function: Bit7=In Bit6=In Bit5=In Bit4=In Bit3=In Bit2=In Bit1=In Bit0=In
; 0000 0070 DDRD=(0<<DDD7) | (0<<DDD6) | (0<<DDD5) | (0<<DDD4) | (0<<DDD3) | (0<<DDD2) | (0<<DDD1) | (0<<DDD0);
	OUT  0x11,R30
; 0000 0071 // State: Bit7=T Bit6=T Bit5=T Bit4=T Bit3=T Bit2=T Bit1=T Bit0=T
; 0000 0072 PORTD=(0<<PORTD7) | (0<<PORTD6) | (0<<PORTD5) | (0<<PORTD4) | (0<<PORTD3) | (0<<PORTD2) | (0<<PORTD1) | (0<<PORTD0);
	OUT  0x12,R30
; 0000 0073 
; 0000 0074 // Timer/Counter 0 initialization
; 0000 0075 // Clock source: System Clock
; 0000 0076 // Clock value: 125.000 kHz
; 0000 0077 // Mode: Fast PWM top=0xFF
; 0000 0078 TCCR0=(1<<WGM00) | (1<<COM01) | (0<<COM00) | (1<<WGM01) | (0<<CS02) | (1<<CS01) | (0<<CS00);
	LDI  R30,LOW(106)
	OUT  0x33,R30
; 0000 0079 TCNT0=0x00;
	LDI  R30,LOW(0)
	OUT  0x32,R30
; 0000 007A 
; 0000 007B 
; 0000 007C // Timer/Counter 1 initialization
; 0000 007D // Clock source: System Clock
; 0000 007E // Clock value: Timer1 Stopped
; 0000 007F // Mode: Normal top=0xFFFF
; 0000 0080 // OC1A output: Disconnected
; 0000 0081 // OC1B output: Disconnected
; 0000 0082 // Noise Canceler: Off
; 0000 0083 // Input Capture on Falling Edge
; 0000 0084 // Timer1 Overflow Interrupt: Off
; 0000 0085 // Input Capture Interrupt: Off
; 0000 0086 // Compare A Match Interrupt: Off
; 0000 0087 // Compare B Match Interrupt: Off
; 0000 0088 TCCR1A=(0<<COM1A1) | (0<<COM1A0) | (0<<COM1B1) | (0<<COM1B0) | (0<<WGM11) | (0<<WGM10);
	OUT  0x2F,R30
; 0000 0089 TCCR1B=(0<<ICNC1) | (0<<ICES1) | (0<<WGM13) | (0<<WGM12) | (0<<CS12) | (0<<CS11) | (0<<CS10);
	OUT  0x2E,R30
; 0000 008A TCNT1H=0x00;
	OUT  0x2D,R30
; 0000 008B TCNT1L=0x00;
	OUT  0x2C,R30
; 0000 008C ICR1H=0x00;
	OUT  0x27,R30
; 0000 008D ICR1L=0x00;
	OUT  0x26,R30
; 0000 008E OCR1AH=0x00;
	OUT  0x2B,R30
; 0000 008F OCR1AL=0x00;
	OUT  0x2A,R30
; 0000 0090 OCR1BH=0x00;
	OUT  0x29,R30
; 0000 0091 OCR1BL=0x00;
	OUT  0x28,R30
; 0000 0092 
; 0000 0093 // Timer/Counter 2 initialization
; 0000 0094 // Clock source: System Clock
; 0000 0095 // Mode: CTC top=OCR2A
; 0000 0096 
; 0000 0097 ASSR=0<<AS2;
	OUT  0x22,R30
; 0000 0098 TCCR2=0b00001010;
	LDI  R30,LOW(10)
	OUT  0x25,R30
; 0000 0099 TCNT2=0x00;
	LDI  R30,LOW(0)
	OUT  0x24,R30
; 0000 009A OCR2=124;
	LDI  R30,LOW(124)
	OUT  0x23,R30
; 0000 009B 
; 0000 009C // Timer(s)/Counter(s) Interrupt(s) initialization
; 0000 009D TIMSK=(1<<OCIE2) | (0<<TOIE2) | (0<<TICIE1) | (0<<OCIE1A) | (0<<OCIE1B) | (0<<TOIE1) | (0<<OCIE0) | (0<<TOIE0);
	LDI  R30,LOW(128)
	OUT  0x39,R30
; 0000 009E 
; 0000 009F // External Interrupt(s) initialization
; 0000 00A0 // INT0: Off
; 0000 00A1 // INT1: Off
; 0000 00A2 // INT2: On
; 0000 00A3 // INT2 Mode: Rising Edge
; 0000 00A4 GICR|=(0<<INT1) | (0<<INT0) | (1<<INT2);
	IN   R30,0x3B
	ORI  R30,0x20
	OUT  0x3B,R30
; 0000 00A5 MCUCR=(0<<ISC11) | (0<<ISC10) | (0<<ISC01) | (0<<ISC00);
	LDI  R30,LOW(0)
	OUT  0x35,R30
; 0000 00A6 MCUCSR=(1<<ISC2);
	LDI  R30,LOW(64)
	OUT  0x34,R30
; 0000 00A7 GIFR=(0<<INTF1) | (0<<INTF0) | (1<<INTF2);
	LDI  R30,LOW(32)
	OUT  0x3A,R30
; 0000 00A8 
; 0000 00A9 // USART initialization
; 0000 00AA // USART disabled
; 0000 00AB UCSRB=(0<<RXCIE) | (0<<TXCIE) | (0<<UDRIE) | (0<<RXEN) | (0<<TXEN) | (0<<UCSZ2) | (0<<RXB8) | (0<<TXB8);
	LDI  R30,LOW(0)
	OUT  0xA,R30
; 0000 00AC 
; 0000 00AD // Analog Comparator initialization
; 0000 00AE // Analog Comparator: Off
; 0000 00AF // The Analog Comparator's positive input is
; 0000 00B0 // connected to the AIN0 pin
; 0000 00B1 // The Analog Comparator's negative input is
; 0000 00B2 // connected to the AIN1 pin
; 0000 00B3 ACSR=(1<<ACD) | (0<<ACBG) | (0<<ACO) | (0<<ACI) | (0<<ACIE) | (0<<ACIC) | (0<<ACIS1) | (0<<ACIS0);
	LDI  R30,LOW(128)
	OUT  0x8,R30
; 0000 00B4 
; 0000 00B5 // ADC initialization
; 0000 00B6 // ADC Clock frequency: 125.000 kHz
; 0000 00B7 // ADC Voltage Reference: AREF pin
; 0000 00B8 // ADC Auto Trigger Source: Free Running
; 0000 00B9 // Only the 8 most significant bits of
; 0000 00BA // the AD conversion result are used
; 0000 00BB ADMUX=0b00100100;
	LDI  R30,LOW(36)
	OUT  0x7,R30
; 0000 00BC ADCSRA=(1<<ADEN) | (0<<ADSC) | (1<<ADATE) | (0<<ADIF) | (1<<ADIE) | (0<<ADPS2) | (1<<ADPS1) | (1<<ADPS0);
	LDI  R30,LOW(171)
	OUT  0x6,R30
; 0000 00BD SFIOR=(0<<ADTS2) | (0<<ADTS1) | (0<<ADTS0);
	LDI  R30,LOW(0)
	OUT  0x30,R30
; 0000 00BE 
; 0000 00BF // SPI initialization
; 0000 00C0 // SPI disabled
; 0000 00C1 SPCR=(0<<SPIE) | (0<<SPE) | (0<<DORD) | (0<<MSTR) | (0<<CPOL) | (0<<CPHA) | (0<<SPR1) | (0<<SPR0);
	OUT  0xD,R30
; 0000 00C2 
; 0000 00C3 // TWI initialization
; 0000 00C4 // TWI disabled
; 0000 00C5 TWCR=(0<<TWEA) | (0<<TWSTA) | (0<<TWSTO) | (0<<TWEN) | (0<<TWIE);
	OUT  0x36,R30
; 0000 00C6 
; 0000 00C7 // Alphanumeric LCD initialization
; 0000 00C8 // Connections are specified in the
; 0000 00C9 // Project|Configure|C Compiler|Libraries|Alphanumeric LCD menu:
; 0000 00CA // RS - PORTD Bit 0
; 0000 00CB // RD - PORTD Bit 1
; 0000 00CC // EN - PORTD Bit 2
; 0000 00CD // D4 - PORTD Bit 4
; 0000 00CE // D5 - PORTD Bit 5
; 0000 00CF // D6 - PORTD Bit 6
; 0000 00D0 // D7 - PORTD Bit 7
; 0000 00D1 // Characters/line: 16
; 0000 00D2 lcd_init(16);
	LDI  R26,LOW(16)
	RCALL _lcd_init
; 0000 00D3 #asm("sei")
	SEI
; 0000 00D4 ADCSRA.6=1;
	SBI  0x6,6
; 0000 00D5 while (1)
_0x7:
; 0000 00D6       {OCR0= PID(a,y);
	MOV  R30,R5
	CLR  R31
	CLR  R22
	CLR  R23
	RCALL __CDF1
	RCALL __PUTPARD1
	MOVW R30,R10
	CLR  R22
	CLR  R23
	RCALL __CDF1
	MOVW R26,R30
	MOVW R24,R22
	RCALL _PID
	RCALL __CFD1U
	OUT  0x3C,R30
; 0000 00D7       delay_ms(1000);
	LDI  R26,LOW(1000)
	LDI  R27,HIGH(1000)
	RCALL _delay_ms
; 0000 00D8       lcd_clear();
	RCALL _lcd_clear
; 0000 00D9       lcd_puts("speed=");
	__POINTW2MN _0xA,0
	RCALL _lcd_puts
; 0000 00DA       lcd_gotoxy(8,0);
	LDI  R30,LOW(8)
	ST   -Y,R30
	LDI  R26,LOW(0)
	RCALL _lcd_gotoxy
; 0000 00DB 
; 0000 00DC       itoa(y,b);
	ST   -Y,R11
	ST   -Y,R10
	MOVW R26,R12
	RCALL _itoa
; 0000 00DD       lcd_puts(b);
	MOVW R26,R12
	RCALL _lcd_puts
; 0000 00DE       lcd_gotoxy(0,1);
	LDI  R30,LOW(0)
	ST   -Y,R30
	LDI  R26,LOW(1)
	RCALL _lcd_gotoxy
; 0000 00DF       lcd_puts("ADC=");
	__POINTW2MN _0xA,7
	RCALL _lcd_puts
; 0000 00E0       lcd_gotoxy(8,1);
	LDI  R30,LOW(8)
	ST   -Y,R30
	LDI  R26,LOW(1)
	RCALL _lcd_gotoxy
; 0000 00E1        itoa(a,c);
	MOV  R30,R5
	LDI  R31,0
	ST   -Y,R31
	ST   -Y,R30
	RCALL SUBOPT_0x1
	RCALL _itoa
; 0000 00E2        lcd_puts(c);
	RCALL SUBOPT_0x1
	RCALL _lcd_puts
; 0000 00E3       delay_ms(10);
	LDI  R26,LOW(10)
	LDI  R27,0
	RCALL _delay_ms
; 0000 00E4 
; 0000 00E5 
; 0000 00E6       } }
	RJMP _0x7
_0xB:
	RJMP _0xB
; .FEND

	.DSEG
_0xA:
	.BYTE 0xC
;

	.CSEG
_itoa:
; .FSTART _itoa
	ST   -Y,R27
	ST   -Y,R26
    ld   r26,y+
    ld   r27,y+
    ld   r30,y+
    ld   r31,y+
    adiw r30,0
    brpl __itoa0
    com  r30
    com  r31
    adiw r30,1
    ldi  r22,'-'
    st   x+,r22
__itoa0:
    clt
    ldi  r24,low(10000)
    ldi  r25,high(10000)
    rcall __itoa1
    ldi  r24,low(1000)
    ldi  r25,high(1000)
    rcall __itoa1
    ldi  r24,100
    clr  r25
    rcall __itoa1
    ldi  r24,10
    rcall __itoa1
    mov  r22,r30
    rcall __itoa5
    clr  r22
    st   x,r22
    ret

__itoa1:
    clr	 r22
__itoa2:
    cp   r30,r24
    cpc  r31,r25
    brlo __itoa3
    inc  r22
    sub  r30,r24
    sbc  r31,r25
    brne __itoa2
__itoa3:
    tst  r22
    brne __itoa4
    brts __itoa5
    ret
__itoa4:
    set
__itoa5:
    subi r22,-0x30
    st   x+,r22
    ret
; .FEND

	.DSEG

	.CSEG
	#ifndef __SLEEP_DEFINED__
	#define __SLEEP_DEFINED__
	.EQU __se_bit=0x40
	.EQU __sm_mask=0xB0
	.EQU __sm_powerdown=0x20
	.EQU __sm_powersave=0x30
	.EQU __sm_standby=0xA0
	.EQU __sm_ext_standby=0xB0
	.EQU __sm_adc_noise_red=0x10
	.SET power_ctrl_reg=mcucr
	#endif

	.DSEG

	.CSEG
__lcd_write_nibble_G101:
; .FSTART __lcd_write_nibble_G101
	ST   -Y,R17
	MOV  R17,R26
	IN   R30,0x12
	ANDI R30,LOW(0xF)
	MOV  R26,R30
	MOV  R30,R17
	ANDI R30,LOW(0xF0)
	OR   R30,R26
	OUT  0x12,R30
	__DELAY_USB 2
	SBI  0x12,2
	__DELAY_USB 2
	CBI  0x12,2
	__DELAY_USB 2
	RJMP _0x20C0001
; .FEND
__lcd_write_data:
; .FSTART __lcd_write_data
	ST   -Y,R26
	LD   R26,Y
	RCALL __lcd_write_nibble_G101
    ld    r30,y
    swap  r30
    st    y,r30
	LD   R26,Y
	RCALL __lcd_write_nibble_G101
	__DELAY_USB 17
	ADIW R28,1
	RET
; .FEND
_lcd_gotoxy:
; .FSTART _lcd_gotoxy
	ST   -Y,R17
	ST   -Y,R16
	MOV  R17,R26
	LDD  R16,Y+2
	MOV  R30,R17
	LDI  R31,0
	SUBI R30,LOW(-__base_y_G101)
	SBCI R31,HIGH(-__base_y_G101)
	LD   R30,Z
	ADD  R30,R16
	MOV  R26,R30
	RCALL __lcd_write_data
	MOV  R4,R16
	STS  __lcd_y,R17
	LDD  R17,Y+1
	LDD  R16,Y+0
	ADIW R28,3
	RET
; .FEND
_lcd_clear:
; .FSTART _lcd_clear
	LDI  R26,LOW(2)
	RCALL SUBOPT_0x2
	LDI  R26,LOW(12)
	RCALL __lcd_write_data
	LDI  R26,LOW(1)
	RCALL SUBOPT_0x2
	LDI  R30,LOW(0)
	STS  __lcd_y,R30
	MOV  R4,R30
	RET
; .FEND
_lcd_putchar:
; .FSTART _lcd_putchar
	ST   -Y,R17
	MOV  R17,R26
	CPI  R17,10
	BREQ _0x2020005
	LDS  R30,__lcd_maxx
	CP   R4,R30
	BRLO _0x2020004
_0x2020005:
	LDI  R30,LOW(0)
	ST   -Y,R30
	LDS  R26,__lcd_y
	SUBI R26,-LOW(1)
	STS  __lcd_y,R26
	RCALL _lcd_gotoxy
	CPI  R17,10
	BREQ _0x20C0001
_0x2020004:
	INC  R4
	SBI  0x12,0
	MOV  R26,R17
	RCALL __lcd_write_data
	CBI  0x12,0
	RJMP _0x20C0001
; .FEND
_lcd_puts:
; .FSTART _lcd_puts
	RCALL __SAVELOCR4
	MOVW R18,R26
_0x2020008:
	MOVW R26,R18
	__ADDWRN 18,19,1
	LD   R30,X
	MOV  R17,R30
	CPI  R30,0
	BREQ _0x202000A
	MOV  R26,R17
	RCALL _lcd_putchar
	RJMP _0x2020008
_0x202000A:
	RCALL __LOADLOCR4
	ADIW R28,4
	RET
; .FEND
_lcd_init:
; .FSTART _lcd_init
	ST   -Y,R17
	MOV  R17,R26
	IN   R30,0x11
	ORI  R30,LOW(0xF0)
	OUT  0x11,R30
	SBI  0x11,2
	SBI  0x11,0
	SBI  0x11,1
	CBI  0x12,2
	CBI  0x12,0
	CBI  0x12,1
	STS  __lcd_maxx,R17
	MOV  R30,R17
	SUBI R30,-LOW(128)
	__PUTB1MN __base_y_G101,2
	MOV  R30,R17
	SUBI R30,-LOW(192)
	__PUTB1MN __base_y_G101,3
	LDI  R26,LOW(20)
	LDI  R27,0
	RCALL _delay_ms
	RCALL SUBOPT_0x3
	RCALL SUBOPT_0x3
	RCALL SUBOPT_0x3
	LDI  R26,LOW(32)
	RCALL __lcd_write_nibble_G101
	__DELAY_USB 33
	LDI  R26,LOW(40)
	RCALL __lcd_write_data
	LDI  R26,LOW(4)
	RCALL __lcd_write_data
	LDI  R26,LOW(133)
	RCALL __lcd_write_data
	LDI  R26,LOW(6)
	RCALL __lcd_write_data
	RCALL _lcd_clear
_0x20C0001:
	LD   R17,Y+
	RET
; .FEND

	.CSEG

	.CSEG

	.CSEG
	#ifndef __SLEEP_DEFINED__
	#define __SLEEP_DEFINED__
	.EQU __se_bit=0x40
	.EQU __sm_mask=0xB0
	.EQU __sm_powerdown=0x20
	.EQU __sm_powersave=0x30
	.EQU __sm_standby=0xA0
	.EQU __sm_ext_standby=0xB0
	.EQU __sm_adc_noise_red=0x10
	.SET power_ctrl_reg=mcucr
	#endif

	.CSEG

	.DSEG
_c:
	.BYTE 0x2
_pre_error:
	.BYTE 0x4
_kp:
	.BYTE 0x4
_error:
	.BYTE 0x4
_Pout:
	.BYTE 0x4
_output:
	.BYTE 0x4
__seed_G100:
	.BYTE 0x4
__base_y_G101:
	.BYTE 0x4
__lcd_y:
	.BYTE 0x1
__lcd_maxx:
	.BYTE 0x1

	.CSEG
;OPTIMIZER ADDED SUBROUTINE, CALLED 2 TIMES, CODE SIZE REDUCTION:5 WORDS
SUBOPT_0x0:
	LDS  R30,_error
	LDS  R31,_error+1
	LDS  R22,_error+2
	LDS  R23,_error+3
	RET

;OPTIMIZER ADDED SUBROUTINE, CALLED 2 TIMES, CODE SIZE REDUCTION:1 WORDS
SUBOPT_0x1:
	LDS  R26,_c
	LDS  R27,_c+1
	RET

;OPTIMIZER ADDED SUBROUTINE, CALLED 2 TIMES, CODE SIZE REDUCTION:1 WORDS
SUBOPT_0x2:
	RCALL __lcd_write_data
	LDI  R26,LOW(3)
	LDI  R27,0
	RJMP _delay_ms

;OPTIMIZER ADDED SUBROUTINE, CALLED 3 TIMES, CODE SIZE REDUCTION:6 WORDS
SUBOPT_0x3:
	LDI  R26,LOW(48)
	RCALL __lcd_write_nibble_G101
	__DELAY_USB 33
	RET

;RUNTIME LIBRARY

	.CSEG
__SAVELOCR4:
	ST   -Y,R19
__SAVELOCR3:
	ST   -Y,R18
__SAVELOCR2:
	ST   -Y,R17
	ST   -Y,R16
	RET

__LOADLOCR4:
	LDD  R19,Y+3
__LOADLOCR3:
	LDD  R18,Y+2
__LOADLOCR2:
	LDD  R17,Y+1
	LD   R16,Y
	RET

__ANEGD1:
	COM  R31
	COM  R22
	COM  R23
	NEG  R30
	SBCI R31,-1
	SBCI R22,-1
	SBCI R23,-1
	RET

__CBD1:
	MOV  R31,R30
	ADD  R31,R31
	SBC  R31,R31
	MOV  R22,R31
	MOV  R23,R31
	RET

__CWD1:
	MOV  R22,R31
	ADD  R22,R22
	SBC  R22,R22
	MOV  R23,R22
	RET

__DIVW21U:
	CLR  R0
	CLR  R1
	LDI  R25,16
__DIVW21U1:
	LSL  R26
	ROL  R27
	ROL  R0
	ROL  R1
	SUB  R0,R30
	SBC  R1,R31
	BRCC __DIVW21U2
	ADD  R0,R30
	ADC  R1,R31
	RJMP __DIVW21U3
__DIVW21U2:
	SBR  R26,1
__DIVW21U3:
	DEC  R25
	BRNE __DIVW21U1
	MOVW R30,R26
	MOVW R26,R0
	RET

__GETD2S0:
	LD   R26,Y
	LDD  R27,Y+1
	LDD  R24,Y+2
	LDD  R25,Y+3
	RET

__PUTPARD1:
	ST   -Y,R23
	ST   -Y,R22
	ST   -Y,R31
	ST   -Y,R30
	RET

__PUTPARD2:
	ST   -Y,R25
	ST   -Y,R24
	ST   -Y,R27
	ST   -Y,R26
	RET

__ROUND_REPACK:
	TST  R21
	BRPL __REPACK
	CPI  R21,0x80
	BRNE __ROUND_REPACK0
	SBRS R30,0
	RJMP __REPACK
__ROUND_REPACK0:
	ADIW R30,1
	ADC  R22,R25
	ADC  R23,R25
	BRVS __REPACK1

__REPACK:
	LDI  R21,0x80
	EOR  R21,R23
	BRNE __REPACK0
	PUSH R21
	RJMP __ZERORES
__REPACK0:
	CPI  R21,0xFF
	BREQ __REPACK1
	LSL  R22
	LSL  R0
	ROR  R21
	ROR  R22
	MOV  R23,R21
	RET
__REPACK1:
	PUSH R21
	TST  R0
	BRMI __REPACK2
	RJMP __MAXRES
__REPACK2:
	RJMP __MINRES

__UNPACK:
	LDI  R21,0x80
	MOV  R1,R25
	AND  R1,R21
	LSL  R24
	ROL  R25
	EOR  R25,R21
	LSL  R21
	ROR  R24

__UNPACK1:
	LDI  R21,0x80
	MOV  R0,R23
	AND  R0,R21
	LSL  R22
	ROL  R23
	EOR  R23,R21
	LSL  R21
	ROR  R22
	RET

__CFD1U:
	SET
	RJMP __CFD1U0
__CFD1:
	CLT
__CFD1U0:
	PUSH R21
	RCALL __UNPACK1
	CPI  R23,0x80
	BRLO __CFD10
	CPI  R23,0xFF
	BRCC __CFD10
	RJMP __ZERORES
__CFD10:
	LDI  R21,22
	SUB  R21,R23
	BRPL __CFD11
	NEG  R21
	CPI  R21,8
	BRTC __CFD19
	CPI  R21,9
__CFD19:
	BRLO __CFD17
	SER  R30
	SER  R31
	SER  R22
	LDI  R23,0x7F
	BLD  R23,7
	RJMP __CFD15
__CFD17:
	CLR  R23
	TST  R21
	BREQ __CFD15
__CFD18:
	LSL  R30
	ROL  R31
	ROL  R22
	ROL  R23
	DEC  R21
	BRNE __CFD18
	RJMP __CFD15
__CFD11:
	CLR  R23
__CFD12:
	CPI  R21,8
	BRLO __CFD13
	MOV  R30,R31
	MOV  R31,R22
	MOV  R22,R23
	SUBI R21,8
	RJMP __CFD12
__CFD13:
	TST  R21
	BREQ __CFD15
__CFD14:
	LSR  R23
	ROR  R22
	ROR  R31
	ROR  R30
	DEC  R21
	BRNE __CFD14
__CFD15:
	TST  R0
	BRPL __CFD16
	RCALL __ANEGD1
__CFD16:
	POP  R21
	RET

__CDF1U:
	SET
	RJMP __CDF1U0
__CDF1:
	CLT
__CDF1U0:
	SBIW R30,0
	SBCI R22,0
	SBCI R23,0
	BREQ __CDF10
	CLR  R0
	BRTS __CDF11
	TST  R23
	BRPL __CDF11
	COM  R0
	RCALL __ANEGD1
__CDF11:
	MOV  R1,R23
	LDI  R23,30
	TST  R1
__CDF12:
	BRMI __CDF13
	DEC  R23
	LSL  R30
	ROL  R31
	ROL  R22
	ROL  R1
	RJMP __CDF12
__CDF13:
	MOV  R30,R31
	MOV  R31,R22
	MOV  R22,R1
	PUSH R21
	RCALL __REPACK
	POP  R21
__CDF10:
	RET

__SWAPACC:
	PUSH R20
	MOVW R20,R30
	MOVW R30,R26
	MOVW R26,R20
	MOVW R20,R22
	MOVW R22,R24
	MOVW R24,R20
	MOV  R20,R0
	MOV  R0,R1
	MOV  R1,R20
	POP  R20
	RET

__UADD12:
	ADD  R30,R26
	ADC  R31,R27
	ADC  R22,R24
	RET

__NEGMAN1:
	COM  R30
	COM  R31
	COM  R22
	SUBI R30,-1
	SBCI R31,-1
	SBCI R22,-1
	RET

__SUBF12:
	PUSH R21
	RCALL __UNPACK
	CPI  R25,0x80
	BREQ __ADDF129
	LDI  R21,0x80
	EOR  R1,R21

__ADDF120:
	CPI  R23,0x80
	BREQ __ADDF128
__ADDF121:
	MOV  R21,R23
	SUB  R21,R25
	BRVS __ADDF1211
	BRPL __ADDF122
	RCALL __SWAPACC
	RJMP __ADDF121
__ADDF122:
	CPI  R21,24
	BRLO __ADDF123
	CLR  R26
	CLR  R27
	CLR  R24
__ADDF123:
	CPI  R21,8
	BRLO __ADDF124
	MOV  R26,R27
	MOV  R27,R24
	CLR  R24
	SUBI R21,8
	RJMP __ADDF123
__ADDF124:
	TST  R21
	BREQ __ADDF126
__ADDF125:
	LSR  R24
	ROR  R27
	ROR  R26
	DEC  R21
	BRNE __ADDF125
__ADDF126:
	MOV  R21,R0
	EOR  R21,R1
	BRMI __ADDF127
	RCALL __UADD12
	BRCC __ADDF129
	ROR  R22
	ROR  R31
	ROR  R30
	INC  R23
	BRVC __ADDF129
	RJMP __MAXRES
__ADDF128:
	RCALL __SWAPACC
__ADDF129:
	RCALL __REPACK
	POP  R21
	RET
__ADDF1211:
	BRCC __ADDF128
	RJMP __ADDF129
__ADDF127:
	SUB  R30,R26
	SBC  R31,R27
	SBC  R22,R24
	BREQ __ZERORES
	BRCC __ADDF1210
	COM  R0
	RCALL __NEGMAN1
__ADDF1210:
	TST  R22
	BRMI __ADDF129
	LSL  R30
	ROL  R31
	ROL  R22
	DEC  R23
	BRVC __ADDF1210

__ZERORES:
	CLR  R30
	CLR  R31
	MOVW R22,R30
	POP  R21
	RET

__MINRES:
	SER  R30
	SER  R31
	LDI  R22,0x7F
	SER  R23
	POP  R21
	RET

__MAXRES:
	SER  R30
	SER  R31
	LDI  R22,0x7F
	LDI  R23,0x7F
	POP  R21
	RET

__MULF12:
	PUSH R21
	RCALL __UNPACK
	CPI  R23,0x80
	BREQ __ZERORES
	CPI  R25,0x80
	BREQ __ZERORES
	EOR  R0,R1
	SEC
	ADC  R23,R25
	BRVC __MULF124
	BRLT __ZERORES
__MULF125:
	TST  R0
	BRMI __MINRES
	RJMP __MAXRES
__MULF124:
	PUSH R0
	PUSH R17
	PUSH R18
	PUSH R19
	PUSH R20
	CLR  R17
	CLR  R18
	CLR  R25
	MUL  R22,R24
	MOVW R20,R0
	MUL  R24,R31
	MOV  R19,R0
	ADD  R20,R1
	ADC  R21,R25
	MUL  R22,R27
	ADD  R19,R0
	ADC  R20,R1
	ADC  R21,R25
	MUL  R24,R30
	RCALL __MULF126
	MUL  R27,R31
	RCALL __MULF126
	MUL  R22,R26
	RCALL __MULF126
	MUL  R27,R30
	RCALL __MULF127
	MUL  R26,R31
	RCALL __MULF127
	MUL  R26,R30
	ADD  R17,R1
	ADC  R18,R25
	ADC  R19,R25
	ADC  R20,R25
	ADC  R21,R25
	MOV  R30,R19
	MOV  R31,R20
	MOV  R22,R21
	MOV  R21,R18
	POP  R20
	POP  R19
	POP  R18
	POP  R17
	POP  R0
	TST  R22
	BRMI __MULF122
	LSL  R21
	ROL  R30
	ROL  R31
	ROL  R22
	RJMP __MULF123
__MULF122:
	INC  R23
	BRVS __MULF125
__MULF123:
	RCALL __ROUND_REPACK
	POP  R21
	RET

__MULF127:
	ADD  R17,R0
	ADC  R18,R1
	ADC  R19,R25
	RJMP __MULF128
__MULF126:
	ADD  R18,R0
	ADC  R19,R1
__MULF128:
	ADC  R20,R25
	ADC  R21,R25
	RET

_delay_ms:
	adiw r26,0
	breq __delay_ms1
__delay_ms0:
	wdr
	__DELAY_USW 0xFA
	sbiw r26,1
	brne __delay_ms0
__delay_ms1:
	ret

;END OF CODE MARKER
__END_OF_CODE:
